; Function Attrs: mustprogress nounwind willreturn uwtable
define void @_ZN4base6PickleD2Ev(ptr noundef nonnull align 8 captures(none) dereferenceable(40) initializes((0, 8)) %0) unnamed_addr #11 align 2 {
  store ptr getelementptr inbounds nuw inrange(-16, 40) (i8, ptr @_ZTVN4base6PickleE, i64 16), ptr %0, align 8, !tbaa !44
  %2 = getelementptr inbounds nuw i8, ptr %0, i64 24
  %3 = load i64, ptr %2, align 8, !tbaa !12
  %.not = icmp eq i64 %3, -1
  br i1 %.not, label %7, label %4

4:                                                ; preds = %1
  %5 = getelementptr inbounds nuw i8, ptr %0, i64 8
  %6 = load ptr, ptr %5, align 8, !tbaa !13
  tail call void @free(ptr noundef %6) #17
  br label %7

7:                                                ; preds = %4, %1
  ret void
}